-----BEGIN ENCRYPTED PRIVATE KEY-----
MIIFDjBABgkqhkiG9w0BBQ0wMzAbBgkqhkiG9w0BBQwwDgQInEI+WtPC4goCAggA
MBQGCCqGSIb3DQMHBAjjtE27CmYOGwSCBMgZ0bInXKShEBW6Q/kJK7d5auDoZvIn
RLklI7cK7SjPcXWjrTQGTTwXiG9s5s46w9e5WK82XwwZolpmjg5/x0iZ0cA8VB/z
JH/A+s3+UzrBbnhPgrrXTYnEDwEYWaOp/31LLM4xgT5QQ5pp3uVvpCQgV79RLyC8
gwGPplBbBGp7EsCc2PZDNRIOk9gHZfvd5u4zNZB4Uh4TmN4rIbgweK5iBaKDRFT/
vK2Qn/Rev7mfG/JPz2DGquTd9k1zN7Fv6dRBDeaJdAiVZsIlfWa74asxAqSfyJVd
0InNHZSWzvXLUAB8AjtDuppuGe6RBHzwZ+1pTDb5zIC2lb9AzjDpkcOl4UZA0td1
GrCplNL3XBzZFhQYcrMBy73R+GMrUuCHqwJWeRN6VvZ9+TQponFgg25q0MWq+uH0
lmE9Q5sqe1POwfttnpu9jsEWUxSxWE0NabPu56lrCQNS10M2//n6YuetLF50jjv+
1Y5ALbydA4Qqyxt6Fna53Bf4u9B8UBwb4xAeJZH1QZcUYlyj4SklsZzLKJZpAIUv
Cz0az+wuN9GrkZxAHgompUSC13W97FXV6SVCpFvbsXthH+vT/AC22Y8n573NIrbX
Y5R25lB3t8hZKFdlDxN4KjlvfEtvpOIEdGOTr55wj8MPxLw7+ruB//CB9IZzE45K
gTvY43RAmmZr8tjtDjJQ0ZgN3eDGIGYiGS+54NkcYUwEg+Ju5BJ20qIyG3xvD+2O
rsQvAqS+QmXyYq3oMIPCc4WTpXc0wZMD8u7PnBRs2unPSr6r/pmnfdPDi7aSrZco
bgoFp5M2i3wo5lREjCI/A795QQ7cMsh5l93XVQ6+2rZ27pmw2Cf5enHbK3D1lm5W
zwejRfyImXL4MS95lT4TUMWM9BzqHQNA5Tp4+Ygr0Bx8DSlmTl0OplG/wwU59TFS
t5xBwPESzq8uXuvMBcCCDOssW15z/k/NVXHX/jZ9B/VCU4NHvMTTDO6jnn1hSJAQ
is/vyv8JyXgrX1u7v4OPLnxfc97aE52DfwKbVPl1EjV27ZU/NLRtQKqL3ThPsfBJ
r7u9GAR4esd6Owcun0Fja3cWmN1t3JZVJN+5hYXMMJ362A5pw2E/SNCc5GvWbRUT
RKiMsh0QOHTADDSnlOLrdI6/1shYJaauxQU8AguRqbXEtdSnEnLVnkCNkCyFcnJW
pugSzD+h1Yr2YGqTyW0ZT3sW7LRG/q01V3m31RE/9/jYMEzK75H9XyeHOv5oIa0p
dNhtA3H2nKUvKpJwPvhHTNfm+GazKBDF3oPU1wVY17slHSxsKG4pYsauvamtMYei
mU4bRDEzXzEic5pvW1M/DfXJVTw5qcoRKBNnuczvNxphIvzkz56b2Bt7f2Bn7T7n
0i2kzQBWR2YbYt+uKv85dw/LNDiGh4iS3G2D0kF4u1Y+ElKU1F4FZzoWtnBN94N1
xCyAt4MnUVkyMPlPKMefqkd4d/LJjAyL4tQ20fF+5EjwJmEaAmUG8OylVrHlKhWs
zmFcj2w7dCQZ2YpvJld7jwAuawtDeQOf4bUV4ibyG8/eszTqVAVvObx/+TiV9a1e
fDXojrk2birTqrtRwdMYAd8ZWWQjtN8qW39KOWkJh317ae5mOS4yf8FagSM35vzG
zTU=
-----END ENCRYPTED PRIVATE KEY-----
Certificate:
    Data:
        Version: 3 (0x2)
        Serial Number: 1 (0x1)
    Signature Algorithm: sha1WithRSAEncryption
        Issuer: DC=org, DC=simple, O=Simple Inc, OU=Simple Signing CA, CN=Simple Signing CA
        Validity
            Not Before: May  4 20:45:07 2018 GMT
            Not After : May  3 20:45:07 2020 GMT
        Subject: DC=org, DC=simple, O=Simple Inc, CN=Fred Flintstone
        Subject Public Key Info:
            Public Key Algorithm: rsaEncryption
                Public-Key: (2048 bit)
                Modulus:
                    00:be:35:cc:f5:1a:b1:fc:10:f4:ea:3c:a7:86:f3:
                    5e:22:f1:3d:71:ef:6a:98:88:96:8e:4b:31:1f:d7:
                    75:96:e8:48:41:08:fa:c9:76:56:14:57:02:0a:67:
                    e8:31:38:d1:ac:cf:8b:bf:6a:b1:0a:cd:c3:d4:a7:
                    8c:f7:73:08:ce:b1:de:2c:74:db:6f:54:b9:36:5a:
                    ee:97:f2:b2:2a:03:26:82:be:66:26:27:81:5a:5d:
                    16:e1:2c:1f:58:99:78:a1:44:5f:9f:0d:a0:bc:28:
                    6b:cf:8b:e9:c5:45:36:a7:50:59:c1:a6:77:0a:41:
                    ad:ca:6b:54:f3:59:7d:d0:17:13:3a:3c:cc:1f:28:
                    fe:5a:5a:18:dd:0f:a3:66:12:a4:b9:24:ba:dd:ec:
                    98:02:77:5b:74:e3:58:0c:40:e0:48:2d:a4:04:e2:
                    00:90:53:a0:79:51:1e:7d:06:f3:0d:3b:a8:36:8b:
                    47:12:ff:b1:87:fc:fb:6e:0f:ec:5d:6a:0f:79:0b:
                    b8:16:a1:05:cd:c9:0a:b7:a1:f0:b2:d9:08:3e:fe:
                    04:f4:34:9f:71:f9:aa:61:e4:30:b1:47:17:33:35:
                    66:3b:9f:4c:f7:9e:45:52:82:2f:b9:fb:1e:e7:20:
                    0a:72:d2:d2:6e:60:a1:5a:85:72:a5:82:12:03:b2:
                    df:2d
                Exponent: 65537 (0x10001)
        X509v3 extensions:
            X509v3 Key Usage: critical
                Digital Signature, Key Encipherment
            X509v3 Basic Constraints: 
                CA:FALSE
            X509v3 Extended Key Usage: 
                E-mail Protection, TLS Web Client Authentication
            X509v3 Subject Key Identifier: 
                7E:B9:DC:1E:D5:1A:BD:CA:08:85:1B:2F:CA:AA:36:22:41:F9:58:D8
            X509v3 Authority Key Identifier: 
                keyid:2D:3C:D1:F5:F4:92:16:D9:33:1D:E1:86:CB:CF:DA:58:7A:8B:B1:DB

            X509v3 Subject Alternative Name: 
                email:fred@simple.org
    Signature Algorithm: sha1WithRSAEncryption
         1d:fc:9f:d6:74:92:27:f7:8f:d1:b0:a4:8f:d8:f3:58:d3:b2:
         dc:25:1a:0f:ca:d1:15:37:76:9e:e0:d0:47:8f:c4:dc:60:a3:
         4f:af:47:ea:45:f4:c8:77:d8:13:a4:ba:79:50:13:e6:be:e8:
         7e:45:a2:b4:16:df:5c:8c:b7:82:c4:ba:71:a3:21:78:09:cc:
         ab:f9:b4:b3:e5:c1:2a:20:93:5a:82:52:cd:ff:68:6d:54:7e:
         17:45:54:51:49:c4:73:67:f2:1a:3c:28:be:89:d7:23:ca:4c:
         d9:ad:23:00:dc:c6:84:53:ee:7b:2d:2f:23:ae:74:38:e7:6a:
         78:c9:a5:ee:e0:8d:6f:74:f2:3d:58:bf:c5:fc:61:b0:81:4b:
         ab:1e:c9:e2:ad:cd:b8:de:47:c8:7f:06:e6:f1:ca:a8:c7:5a:
         28:05:a1:cb:07:c1:34:3e:b4:fe:c1:46:8a:ab:78:2b:f8:73:
         1a:89:a9:41:4f:c7:00:3e:5a:15:d9:5b:4e:d7:f9:fb:e2:7e:
         73:d1:9c:5b:df:13:fd:5a:63:41:3c:2d:69:8a:28:23:eb:5b:
         75:b2:d2:ce:4c:e5:79:f0:a6:7c:fd:c8:0f:f5:ba:3e:25:ff:
         44:51:e9:d1:26:22:7c:31:6d:3d:db:75:95:83:93:67:ea:6f:
         1e:4b:1b:2b
-----BEGIN CERTIFICATE-----
MIID6zCCAtOgAwIBAgIBATANBgkqhkiG9w0BAQUFADB6MRMwEQYKCZImiZPyLGQB
GRYDb3JnMRYwFAYKCZImiZPyLGQBGRYGc2ltcGxlMRMwEQYDVQQKDApTaW1wbGUg
SW5jMRowGAYDVQQLDBFTaW1wbGUgU2lnbmluZyBDQTEaMBgGA1UEAwwRU2ltcGxl
IFNpZ25pbmcgQ0EwHhcNMTgwNTA0MjA0NTA3WhcNMjAwNTAzMjA0NTA3WjBcMRMw
EQYKCZImiZPyLGQBGRYDb3JnMRYwFAYKCZImiZPyLGQBGRYGc2ltcGxlMRMwEQYD
VQQKDApTaW1wbGUgSW5jMRgwFgYDVQQDDA9GcmVkIEZsaW50c3RvbmUwggEiMA0G
CSqGSIb3DQEBAQUAA4IBDwAwggEKAoIBAQC+Ncz1GrH8EPTqPKeG814i8T1x72qY
iJaOSzEf13WW6EhBCPrJdlYUVwIKZ+gxONGsz4u/arEKzcPUp4z3cwjOsd4sdNtv
VLk2Wu6X8rIqAyaCvmYmJ4FaXRbhLB9YmXihRF+fDaC8KGvPi+nFRTanUFnBpncK
Qa3Ka1TzWX3QFxM6PMwfKP5aWhjdD6NmEqS5JLrd7JgCd1t041gMQOBILaQE4gCQ
U6B5UR59BvMNO6g2i0cS/7GH/PtuD+xdag95C7gWoQXNyQq3ofCy2Qg+/gT0NJ9x
+aph5DCxRxczNWY7n0z3nkVSgi+5+x7nIApy0tJuYKFahXKlghIDst8tAgMBAAGj
gZkwgZYwDgYDVR0PAQH/BAQDAgWgMAkGA1UdEwQCMAAwHQYDVR0lBBYwFAYIKwYB
BQUHAwQGCCsGAQUFBwMCMB0GA1UdDgQWBBR+udwe1Rq9ygiFGy/KqjYiQflY2DAf
BgNVHSMEGDAWgBQtPNH19JIW2TMd4YbLz9pYeoux2zAaBgNVHREEEzARgQ9mcmVk
QHNpbXBsZS5vcmcwDQYJKoZIhvcNAQEFBQADggEBAB38n9Z0kif3j9GwpI/Y81jT
stwlGg/K0RU3dp7g0EePxNxgo0+vR+pF9Mh32BOkunlQE+a+6H5ForQW31yMt4LE
unGjIXgJzKv5tLPlwSogk1qCUs3/aG1UfhdFVFFJxHNn8ho8KL6J1yPKTNmtIwDc
xoRT7nstLyOudDjnanjJpe7gjW908j1Yv8X8YbCBS6seyeKtzbjeR8h/BubxyqjH
WigFocsHwTQ+tP7BRoqreCv4cxqJqUFPxwA+WhXZW07X+fvifnPRnFvfE/1aY0E8
LWmKKCPrW3Wy0s5M5Xnwpnz9yA/1uj4l/0RR6dEmInwxbT3bdZWDk2fqbx5LGys=
-----END CERTIFICATE-----
