Certificate:
    Data:
        Version: 3 (0x2)
        Serial Number: 1 (0x1)
    Signature Algorithm: sha1WithRSAEncryption
        Issuer: DC=org, DC=simple, O=Simple Inc, OU=Simple Root CA, CN=Simple Root CA
        Validity
            Not Before: May  4 20:08:02 2018 GMT
            Not After : May  3 20:08:02 2028 GMT
        Subject: DC=org, DC=simple, O=Simple Inc, OU=Simple Root CA, CN=Simple Root CA
        Subject Public Key Info:
            Public Key Algorithm: rsaEncryption
                Public-Key: (2048 bit)
                Modulus:
                    00:bc:e2:d8:cb:50:1a:da:f4:60:61:73:08:f2:f5:
                    7e:cc:9b:a4:16:33:d4:53:41:a9:5b:fb:ab:db:c8:
                    3d:a8:99:90:cf:e9:21:45:a5:2c:bf:ff:c4:bc:29:
                    01:cc:ea:9c:31:b4:73:3c:41:3b:ad:a4:7e:61:c1:
                    b1:65:29:f9:c4:88:9f:13:af:66:8a:6f:5c:a5:53:
                    5b:c9:13:0d:5b:72:fd:f0:3f:8f:f9:ad:cc:55:9b:
                    be:04:8a:72:c1:de:44:66:b9:bc:8c:b7:ae:97:96:
                    11:5c:f3:b1:62:cc:65:08:12:3f:fa:3e:b7:a8:6a:
                    bd:89:e2:2d:5a:0f:fc:14:8a:ea:7d:1d:17:26:6f:
                    93:7c:e4:81:13:14:17:93:5e:5b:53:51:75:8a:09:
                    4b:9d:61:41:d9:a1:9e:b0:e2:bb:27:be:0e:ad:45:
                    ed:71:32:01:60:b7:83:20:50:2a:c8:74:25:d4:68:
                    8e:92:fa:6a:81:95:7b:3e:74:36:21:8a:99:4c:52:
                    fe:01:59:7d:49:0d:fd:23:76:56:c5:23:59:f3:94:
                    83:a2:30:ee:2d:9c:8e:4a:f8:78:48:16:bb:98:20:
                    28:3d:ef:99:1c:a7:1d:0f:f8:ea:3d:e3:1a:a6:34:
                    ad:45:fd:8a:1a:50:96:ac:24:f7:3b:70:8d:9e:83:
                    35:8b
                Exponent: 65537 (0x10001)
        X509v3 extensions:
            X509v3 Key Usage: critical
                Certificate Sign, CRL Sign
            X509v3 Basic Constraints: critical
                CA:TRUE
            X509v3 Subject Key Identifier: 
                D2:29:0D:B1:4F:B0:CF:01:CF:B7:1A:9A:B2:2C:14:09:DE:54:62:0D
            X509v3 Authority Key Identifier: 
                keyid:D2:29:0D:B1:4F:B0:CF:01:CF:B7:1A:9A:B2:2C:14:09:DE:54:62:0D

    Signature Algorithm: sha1WithRSAEncryption
         95:bb:8e:fd:52:a0:69:47:38:ab:e3:6e:ac:bd:ee:ba:70:cf:
         5b:85:cd:11:1c:16:a6:3f:44:88:05:e6:e0:70:04:90:f5:b6:
         51:7d:5f:64:2d:76:04:df:16:09:8e:87:84:c3:ff:cb:64:d1:
         2c:17:00:d1:94:d8:d2:d0:f2:b6:dd:a0:03:0c:08:91:6b:03:
         93:7d:bf:72:14:8e:1a:6e:d3:5a:15:de:f8:59:f4:8e:14:36:
         03:82:c6:dc:dc:4f:d0:92:a5:5d:04:7a:c0:a0:82:e1:75:1b:
         d3:22:69:81:35:6c:cf:5d:0d:26:e3:0a:05:3f:b6:56:b3:03:
         66:80:5b:8c:f0:6c:a6:aa:9c:0a:84:07:16:c1:db:e8:e3:06:
         5f:af:c3:7e:f8:97:80:35:3b:e3:53:89:71:aa:37:6f:0d:8f:
         c1:a3:8a:ba:75:52:e2:09:e6:b6:ba:b6:c8:76:d2:3f:fc:fd:
         53:69:f0:3d:63:41:67:0a:c3:b9:5d:3d:12:7d:bd:22:c1:40:
         55:6b:c6:00:84:4d:87:20:f4:9a:f2:61:9e:a1:02:8c:f6:fa:
         e6:dc:43:37:58:6d:89:ef:70:8e:7c:dd:ea:4d:3e:44:0b:bb:
         69:18:e2:20:d0:cb:e9:f0:e5:c9:cf:43:6e:f7:4b:a8:3c:a6:
         6a:63:0a:df
-----BEGIN CERTIFICATE-----
MIIDxjCCAq6gAwIBAgIBATANBgkqhkiG9w0BAQUFADB0MRMwEQYKCZImiZPyLGQB
GRYDb3JnMRYwFAYKCZImiZPyLGQBGRYGc2ltcGxlMRMwEQYDVQQKDApTaW1wbGUg
SW5jMRcwFQYDVQQLDA5TaW1wbGUgUm9vdCBDQTEXMBUGA1UEAwwOU2ltcGxlIFJv
b3QgQ0EwHhcNMTgwNTA0MjAwODAyWhcNMjgwNTAzMjAwODAyWjB0MRMwEQYKCZIm
iZPyLGQBGRYDb3JnMRYwFAYKCZImiZPyLGQBGRYGc2ltcGxlMRMwEQYDVQQKDApT
aW1wbGUgSW5jMRcwFQYDVQQLDA5TaW1wbGUgUm9vdCBDQTEXMBUGA1UEAwwOU2lt
cGxlIFJvb3QgQ0EwggEiMA0GCSqGSIb3DQEBAQUAA4IBDwAwggEKAoIBAQC84tjL
UBra9GBhcwjy9X7Mm6QWM9RTQalb+6vbyD2omZDP6SFFpSy//8S8KQHM6pwxtHM8
QTutpH5hwbFlKfnEiJ8Tr2aKb1ylU1vJEw1bcv3wP4/5rcxVm74EinLB3kRmubyM
t66XlhFc87FizGUIEj/6Preoar2J4i1aD/wUiup9HRcmb5N85IETFBeTXltTUXWK
CUudYUHZoZ6w4rsnvg6tRe1xMgFgt4MgUCrIdCXUaI6S+mqBlXs+dDYhiplMUv4B
WX1JDf0jdlbFI1nzlIOiMO4tnI5K+HhIFruYICg975kcpx0P+Oo94xqmNK1F/Yoa
UJasJPc7cI2egzWLAgMBAAGjYzBhMA4GA1UdDwEB/wQEAwIBBjAPBgNVHRMBAf8E
BTADAQH/MB0GA1UdDgQWBBTSKQ2xT7DPAc+3GpqyLBQJ3lRiDTAfBgNVHSMEGDAW
gBTSKQ2xT7DPAc+3GpqyLBQJ3lRiDTANBgkqhkiG9w0BAQUFAAOCAQEAlbuO/VKg
aUc4q+NurL3uunDPW4XNERwWpj9EiAXm4HAEkPW2UX1fZC12BN8WCY6HhMP/y2TR
LBcA0ZTY0tDytt2gAwwIkWsDk32/chSOGm7TWhXe+Fn0jhQ2A4LG3NxP0JKlXQR6
wKCC4XUb0yJpgTVsz10NJuMKBT+2VrMDZoBbjPBspqqcCoQHFsHb6OMGX6/DfviX
gDU741OJcao3bw2PwaOKunVS4gnmtrq2yHbSP/z9U2nwPWNBZwrDuV09En29IsFA
VWvGAIRNhyD0mvJhnqECjPb65txDN1htie9wjnzd6k0+RAu7aRjiINDL6fDlyc9D
bvdLqDymamMK3w==
-----END CERTIFICATE-----
