Certificate:
    Data:
        Version: 3 (0x2)
        Serial Number: 2 (0x2)
    Signature Algorithm: sha1WithRSAEncryption
        Issuer: DC=org, DC=simple, O=Simple Inc, OU=Simple Root CA, CN=Simple Root CA
        Validity
            Not Before: May  4 20:31:40 2018 GMT
            Not After : May  3 20:31:40 2028 GMT
        Subject: DC=org, DC=simple, O=Simple Inc, OU=Simple Signing CA, CN=Simple Signing CA
        Subject Public Key Info:
            Public Key Algorithm: rsaEncryption
                Public-Key: (2048 bit)
                Modulus:
                    00:c2:eb:4b:ac:ec:cb:03:28:ac:e6:20:bc:df:94:
                    5e:d5:09:40:d5:85:7a:94:02:14:bc:cc:47:7c:db:
                    0e:49:15:cc:b8:04:f0:14:79:72:a5:27:f7:31:67:
                    ef:84:21:1f:92:37:1a:eb:3f:b4:dc:80:62:35:27:
                    de:c0:51:d6:64:ae:6d:6a:4e:7b:ad:16:29:f1:28:
                    27:b4:bf:19:58:82:98:05:e9:cf:8e:35:d0:bf:c6:
                    60:b0:d6:da:dc:18:0a:99:71:c1:67:8f:4f:97:a4:
                    74:62:b6:50:f3:9e:45:85:1f:48:f3:ba:0c:bf:2f:
                    69:87:ba:4e:57:dd:51:43:a3:de:9b:fa:fe:19:e3:
                    14:48:6b:7f:87:1e:45:07:37:d6:ee:d0:0f:2c:c2:
                    90:0e:ed:f0:f6:c1:cd:a6:03:5f:f6:4e:90:a8:d7:
                    3c:b0:cd:7e:71:2c:db:e4:91:ae:e1:31:d5:a0:78:
                    12:e6:3c:83:6f:d3:64:51:36:73:7a:91:7d:95:6b:
                    90:78:75:6e:55:03:3f:ff:26:3a:f2:2f:b8:eb:26:
                    b5:4a:85:08:0f:ed:77:5b:48:08:6b:fe:4b:8b:df:
                    36:78:11:03:c1:be:a0:72:ac:a9:24:83:1c:5a:00:
                    0b:eb:a0:05:34:3b:e2:a8:c2:6c:26:42:15:c9:54:
                    d5:a3
                Exponent: 65537 (0x10001)
        X509v3 extensions:
            X509v3 Key Usage: critical
                Certificate Sign, CRL Sign
            X509v3 Basic Constraints: critical
                CA:TRUE, pathlen:0
            X509v3 Subject Key Identifier: 
                2D:3C:D1:F5:F4:92:16:D9:33:1D:E1:86:CB:CF:DA:58:7A:8B:B1:DB
            X509v3 Authority Key Identifier: 
                keyid:D2:29:0D:B1:4F:B0:CF:01:CF:B7:1A:9A:B2:2C:14:09:DE:54:62:0D

    Signature Algorithm: sha1WithRSAEncryption
         7e:4c:ab:00:6a:d2:fd:02:d6:84:c7:68:40:c9:98:ac:f3:d5:
         97:57:98:30:df:4a:2b:8a:64:82:de:c7:4c:18:8a:b3:6d:fb:
         8d:c5:49:c6:da:a0:df:a8:bc:53:ed:a3:02:80:9f:a1:c3:e6:
         8e:92:7b:65:98:6d:28:0a:5c:26:51:08:0d:0f:b7:73:99:c1:
         bf:a7:6f:66:1d:d6:26:51:d2:60:78:14:22:a3:e4:d7:fc:d1:
         e5:ef:95:1b:02:e4:02:b2:58:5e:89:bc:54:b4:93:f6:27:c9:
         df:31:c1:e0:fa:40:b8:f1:a3:08:56:5f:e2:94:39:7d:0b:84:
         96:af:fb:58:d7:34:05:89:f1:31:89:41:0a:4c:d0:0e:71:bb:
         36:03:e2:b2:5f:59:f5:60:f4:c6:b2:91:d8:46:c3:61:b5:bc:
         61:8d:2f:6f:1e:09:03:b5:60:39:95:99:40:a2:af:5f:ce:fd:
         38:17:76:27:bc:36:1b:6d:41:48:26:83:2d:4f:c8:a4:25:70:
         d1:71:8b:d4:bb:85:d6:86:4c:c9:65:d2:2e:93:82:d3:7e:88:
         84:cc:e5:14:f5:dd:79:f9:24:f3:1c:30:60:85:c3:fe:fb:58:
         39:bd:23:b2:12:62:16:74:4a:f0:56:6d:bb:8f:45:0b:08:45:
         41:3b:2e:66
-----BEGIN CERTIFICATE-----
MIIDzzCCAregAwIBAgIBAjANBgkqhkiG9w0BAQUFADB0MRMwEQYKCZImiZPyLGQB
GRYDb3JnMRYwFAYKCZImiZPyLGQBGRYGc2ltcGxlMRMwEQYDVQQKDApTaW1wbGUg
SW5jMRcwFQYDVQQLDA5TaW1wbGUgUm9vdCBDQTEXMBUGA1UEAwwOU2ltcGxlIFJv
b3QgQ0EwHhcNMTgwNTA0MjAzMTQwWhcNMjgwNTAzMjAzMTQwWjB6MRMwEQYKCZIm
iZPyLGQBGRYDb3JnMRYwFAYKCZImiZPyLGQBGRYGc2ltcGxlMRMwEQYDVQQKDApT
aW1wbGUgSW5jMRowGAYDVQQLDBFTaW1wbGUgU2lnbmluZyBDQTEaMBgGA1UEAwwR
U2ltcGxlIFNpZ25pbmcgQ0EwggEiMA0GCSqGSIb3DQEBAQUAA4IBDwAwggEKAoIB
AQDC60us7MsDKKzmILzflF7VCUDVhXqUAhS8zEd82w5JFcy4BPAUeXKlJ/cxZ++E
IR+SNxrrP7TcgGI1J97AUdZkrm1qTnutFinxKCe0vxlYgpgF6c+ONdC/xmCw1trc
GAqZccFnj0+XpHRitlDznkWFH0jzugy/L2mHuk5X3VFDo96b+v4Z4xRIa3+HHkUH
N9bu0A8swpAO7fD2wc2mA1/2TpCo1zywzX5xLNvkka7hMdWgeBLmPINv02RRNnN6
kX2Va5B4dW5VAz//JjryL7jrJrVKhQgP7XdbSAhr/kuL3zZ4EQPBvqByrKkkgxxa
AAvroAU0O+KowmwmQhXJVNWjAgMBAAGjZjBkMA4GA1UdDwEB/wQEAwIBBjASBgNV
HRMBAf8ECDAGAQH/AgEAMB0GA1UdDgQWBBQtPNH19JIW2TMd4YbLz9pYeoux2zAf
BgNVHSMEGDAWgBTSKQ2xT7DPAc+3GpqyLBQJ3lRiDTANBgkqhkiG9w0BAQUFAAOC
AQEAfkyrAGrS/QLWhMdoQMmYrPPVl1eYMN9KK4pkgt7HTBiKs237jcVJxtqg36i8
U+2jAoCfocPmjpJ7ZZhtKApcJlEIDQ+3c5nBv6dvZh3WJlHSYHgUIqPk1/zR5e+V
GwLkArJYXom8VLST9ifJ3zHB4PpAuPGjCFZf4pQ5fQuElq/7WNc0BYnxMYlBCkzQ
DnG7NgPisl9Z9WD0xrKR2EbDYbW8YY0vbx4JA7VgOZWZQKKvX879OBd2J7w2G21B
SCaDLU/IpCVw0XGL1LuF1oZMyWXSLpOC036IhMzlFPXdefkk8xwwYIXD/vtYOb0j
shJiFnRK8FZtu49FCwhFQTsuZg==
-----END CERTIFICATE-----
